target datalayout = "e-m:e-p270:32:32-p271:32:32-p272:64:64-i64:64-i128:128-f80:128-n8:16:32:64-S128"
target triple = "x86_64-pc-linux-gnu"

%"class.llvm::Value" = type { i8, i8, i16, i32, ptr, ptr }

; Function Attrs: mustprogress nounwind uwtable
define linkonce_odr hidden noundef i32 @_ZNK4llvm5Value10getValueIDEv(ptr noundef nonnull align 8 dereferenceable(24) %0) #1 comdat align 2 {
  %2 = alloca ptr, align 8
  store ptr %0, ptr %2, align 8
  %3 = load ptr, ptr %2, align 8
  %4 = getelementptr inbounds nuw %"class.llvm::Value", ptr %3, i32 0, i32 0
  %5 = load i8, ptr %4, align 8
  %6 = zext i8 %5 to i32
  ret i32 %6
}

; Function Attrs: mustprogress nounwind uwtable
define linkonce_odr hidden noundef zeroext i1 @_ZN4llvm11Instruction6isCastEj(i32 noundef %0) #1 comdat align 2 {
  %2 = alloca i32, align 4
  store i32 %0, ptr %2, align 4
  %3 = load i32, ptr %2, align 4
  %4 = icmp uge i32 %3, 38
  br i1 %4, label %5, label %8

5:                                                ; preds = %1
  %6 = load i32, ptr %2, align 4
  %7 = icmp ult i32 %6, 51
  br label %8

8:                                                ; preds = %5, %1
  %9 = phi i1 [ false, %1 ], [ %7, %5 ]
  ret i1 %9
}

; Function Attrs: mustprogress nounwind uwtable
define linkonce_odr hidden noundef i32 @_ZNK4llvm11Instruction9getOpcodeEv(ptr noundef nonnull align 8 dereferenceable(72) %0) #1 comdat align 2 {
  %2 = alloca ptr, align 8
  store ptr %0, ptr %2, align 8
  %3 = load ptr, ptr %2, align 8
  %4 = call noundef i32 @_ZNK4llvm5Value10getValueIDEv(ptr noundef nonnull align 8 dereferenceable(24) %3)
  %5 = sub i32 %4, 29
  ret i32 %5
}

; Function Attrs: mustprogress nounwind uwtable
define linkonce_odr hidden noundef i32 @_ZNK4llvm4User14getNumOperandsEv(ptr noundef nonnull align 8 dereferenceable(24) %0) #1 comdat align 2 {
  %2 = alloca ptr, align 8
  store ptr %0, ptr %2, align 8
  %3 = load ptr, ptr %2, align 8
  %4 = getelementptr inbounds nuw %"class.llvm::Value", ptr %3, i32 0, i32 3
  %5 = load i32, ptr %4, align 4
  %6 = and i32 %5, 134217727
  ret i32 %6
}

; Function Attrs: mustprogress nounwind uwtable
define linkonce_odr hidden noundef zeroext i1 @_ZNK4llvm11Instruction6isCastEv(ptr noundef nonnull align 8 dereferenceable(72) %0) #1 comdat align 2 {
  %2 = alloca ptr, align 8
  store ptr %0, ptr %2, align 8
  %3 = load ptr, ptr %2, align 8
  %4 = call noundef i32 @_ZNK4llvm11Instruction9getOpcodeEv(ptr noundef nonnull align 8 dereferenceable(72) %3)
  %5 = call noundef zeroext i1 @_ZN4llvm11Instruction6isCastEj(i32 noundef %4)
  ret i1 %5
}

; Function Attrs: mustprogress nounwind uwtable
define dso_local void @_ZN4llvm20ConstantHoistingPass25collectConstantCandidatesERNS_8DenseMapINS_12PointerUnionIJPNS_11ConstantIntEPNS_12ConstantExprEEEEjNS_12DenseMapInfoIS7_vEENS_6detail12DenseMapPairIS7_jEEEEPNS_11InstructionE(ptr noundef nonnull align 8 dereferenceable(5600) %0, ptr noundef nonnull align 8 dereferenceable(20) %1, ptr noundef %2) #1 align 2 {
  %4 = alloca ptr, align 8
  %5 = alloca ptr, align 8
  %6 = alloca ptr, align 8
  %7 = alloca i32, align 4
  %8 = alloca i32, align 4
  store ptr %0, ptr %4, align 8
  store ptr %1, ptr %5, align 8
  store ptr %2, ptr %6, align 8
  %9 = load ptr, ptr %4, align 8
  %10 = load ptr, ptr %6, align 8
  %11 = call noundef zeroext i1 @_ZNK4llvm11Instruction6isCastEv(ptr noundef nonnull align 8 dereferenceable(72) %10)
  br i1 %11, label %12, label %13

12:                                               ; preds = %3
  br label %32

13:                                               ; preds = %3
  store i32 0, ptr %7, align 4
  %14 = load ptr, ptr %6, align 8
  %15 = call noundef i32 @_ZNK4llvm4User14getNumOperandsEv(ptr noundef nonnull align 8 dereferenceable(24) %14)
  store i32 %15, ptr %8, align 4
  br label %16

16:                                               ; preds = %29, %13
  %17 = load i32, ptr %7, align 4
  %18 = load i32, ptr %8, align 4
  %19 = icmp ne i32 %17, %18
  br i1 %19, label %20, label %32

20:                                               ; preds = %16
  %21 = load ptr, ptr %6, align 8
  %22 = load i32, ptr %7, align 4
  %23 = call noundef zeroext i1 @_ZN4llvm29canReplaceOperandWithVariableEPKNS_11InstructionEj(ptr noundef %21, i32 noundef %22)
  br i1 %23, label %24, label %28

24:                                               ; preds = %20
  %25 = load ptr, ptr %5, align 8
  %26 = load ptr, ptr %6, align 8
  %27 = load i32, ptr %7, align 4
  call void @_ZN4llvm20ConstantHoistingPass25collectConstantCandidatesERNS_8DenseMapINS_12PointerUnionIJPNS_11ConstantIntEPNS_12ConstantExprEEEEjNS_12DenseMapInfoIS7_vEENS_6detail12DenseMapPairIS7_jEEEEPNS_11InstructionEj(ptr noundef nonnull align 8 dereferenceable(5600) %9, ptr noundef nonnull align 8 dereferenceable(20) %25, ptr noundef %26, i32 noundef %27)
  br label %28

28:                                               ; preds = %24, %20
  br label %29

29:                                               ; preds = %28
  %30 = load i32, ptr %7, align 4
  %31 = add i32 %30, 1
  store i32 %31, ptr %7, align 4
  br label %16, !llvm.loop !9

32:                                               ; preds = %16, %12
  ret void
}