; Function Attrs: mustprogress nounwind uwtable
define dso_local void @_ZN4llvm20ConstantHoistingPass25collectConstantCandidatesERNS_8DenseMapINS_12PointerUnionIJPNS_11ConstantIntEPNS_12ConstantExprEEEEjNS_12DenseMapInfoIS7_vEENS_6detail12DenseMapPairIS7_jEEEEPNS_11InstructionE(ptr noundef nonnull align 8 dereferenceable(5600) %0, ptr noundef nonnull align 8 dereferenceable(20) %1, ptr noundef %2) local_unnamed_addr #0 align 2 {
  %4 = load i8, ptr %2, align 8
  %5 = add i8 %4, -67
  %6 = icmp ult i8 %5, 13
  br i1 %6, label %.loopexit, label %7

7:                                                ; preds = %3
  %8 = getelementptr inbounds nuw i8, ptr %2, i64 4
  %9 = load i32, ptr %8, align 4
  %10 = and i32 %9, 134217727
  %.not10 = icmp eq i32 %10, 0
  br i1 %.not10, label %.loopexit, label %.lr.ph

.lr.ph:                                           ; preds = %7, %13
  %.011 = phi i32 [ %14, %13 ], [ 0, %7 ]
  %11 = tail call noundef zeroext i1 @_ZN4llvm29canReplaceOperandWithVariableEPKNS_11InstructionEj(ptr noundef nonnull %2, i32 noundef %.011) #20
  br i1 %11, label %12, label %13

12:                                               ; preds = %.lr.ph
  tail call void @_ZN4llvm20ConstantHoistingPass25collectConstantCandidatesERNS_8DenseMapINS_12PointerUnionIJPNS_11ConstantIntEPNS_12ConstantExprEEEEjNS_12DenseMapInfoIS7_vEENS_6detail12DenseMapPairIS7_jEEEEPNS_11InstructionEj(ptr noundef nonnull align 8 dereferenceable(5600) %0, ptr noundef nonnull align 8 dereferenceable(20) %1, ptr noundef nonnull %2, i32 noundef %.011)
  br label %13

13:                                               ; preds = %.lr.ph, %12
  %14 = add nuw nsw i32 %.011, 1
  %.not = icmp eq i32 %14, %10
  br i1 %.not, label %.loopexit, label %.lr.ph, !llvm.loop !83

.loopexit:                                        ; preds = %13, %7, %3
  ret void
}